; Function Attrs: mustprogress uwtable
define noalias ptr @lean_io_wait_any(ptr noundef %0, ptr noundef readnone captures(none) %1) local_unnamed_addr #0 {
  %3 = tail call ptr @lean_io_wait_any_core(ptr noundef %0)
  %4 = tail call ptr @lean_task_get(ptr noundef %3)
  %5 = ptrtoint ptr %4 to i64
  %6 = and i64 %5, 1
  %.not = icmp eq i64 %6, 0
  br i1 %.not, label %7, label %_ZL8lean_incP11lean_object.exit

7:                                                ; preds = %2
  %.val.i = load i32, ptr %4, align 4, !tbaa !7
  %8 = icmp sgt i32 %.val.i, 0
  br i1 %8, label %9, label %11, !prof !10

9:                                                ; preds = %7
  %10 = add nuw nsw i32 %.val.i, 1
  store i32 %10, ptr %4, align 4, !tbaa !7
  br label %_ZL8lean_incP11lean_object.exit

11:                                               ; preds = %7
  %.not.i = icmp eq i32 %.val.i, 0
  br i1 %.not.i, label %_ZL8lean_incP11lean_object.exit, label %12

12:                                               ; preds = %11
  tail call void @lean_inc_ref_cold(ptr noundef nonnull %4)
  br label %_ZL8lean_incP11lean_object.exit

_ZL8lean_incP11lean_object.exit:                  ; preds = %12, %11, %9, %2
  tail call void @lean_inc_heartbeat()
  %13 = tail call noalias ptr @mi_malloc_small(i64 noundef 24) #27
  %14 = icmp eq ptr %13, null
  br i1 %14, label %15, label %_ZN4lean15io_result_mk_okEP11lean_object.exit

15:                                               ; preds = %_ZL8lean_incP11lean_object.exit
  tail call void @lean_internal_panic_out_of_memory() #28
  unreachable

_ZN4lean15io_result_mk_okEP11lean_object.exit:    ; preds = %_ZL8lean_incP11lean_object.exit
  %16 = getelementptr inbounds nuw i8, ptr %13, i64 4
  store i32 1, ptr %13, align 4, !tbaa !7
  store i32 131096, ptr %16, align 4
  %17 = getelementptr inbounds nuw i8, ptr %13, i64 8
  store ptr %4, ptr %17, align 8, !tbaa !3
  %18 = getelementptr inbounds nuw i8, ptr %13, i64 16
  store ptr inttoptr (i64 1 to ptr), ptr %18, align 8, !tbaa !3
  ret ptr %13
}